Certificate:
    Data:
        Version: 3 (0x2)
        Serial Number:
            fd:f4:f4:86:b7:59:c8:26:97:56:53:be:1a:3a:ee:d9
    Signature Algorithm: sha256WithRSAEncryption
        Issuer: CN=Couchbase CA
        Validity
            Not Before: Feb 21 15:49:15 2020 GMT
            Not After : May 26 15:49:15 2022 GMT
        Subject: CN=couchbase-server
        Subject Public Key Info:
            Public Key Algorithm: rsaEncryption
                Public-Key: (2048 bit)
                Modulus:
                    00:dd:9f:82:41:7d:66:38:87:00:c4:51:c2:a5:3e:
                    92:9a:4e:b7:9a:39:a4:62:22:6d:e4:9a:42:e3:43:
                    99:5a:fe:c9:4f:36:30:00:0a:3f:73:4d:db:60:cf:
                    27:cf:67:29:0a:56:4c:c9:50:79:2f:09:f0:5c:b1:
                    0b:23:68:0c:ea:a8:25:68:a3:6f:69:91:ed:88:09:
                    00:42:cf:ae:75:ea:c3:17:f2:22:f2:5d:7f:a6:d1:
                    e9:4a:09:57:c6:96:f0:e3:6e:b7:e1:97:c8:74:ab:
                    66:51:4f:8b:2f:38:97:cb:94:49:e6:66:d0:11:d6:
                    be:d5:c7:ce:9d:4f:84:45:58:e1:39:50:fa:cf:dd:
                    a3:b5:99:4e:e5:78:87:f4:31:d2:e6:70:17:39:d8:
                    04:5e:68:23:4c:48:20:e6:77:cc:4a:f3:19:91:f4:
                    13:77:6c:9e:da:95:56:d4:c6:ce:8b:2f:af:30:2c:
                    bd:f0:a1:ea:45:eb:ad:c0:b7:b7:fd:a1:b6:89:21:
                    84:31:32:b0:52:17:00:21:30:db:b0:3d:cd:4d:87:
                    b7:9e:8a:0e:f0:08:cf:ca:fa:10:c1:49:9a:21:bb:
                    00:ff:9d:94:a2:dc:a7:ff:81:70:d8:9e:97:74:21:
                    6b:4f:a5:22:46:ec:be:68:8f:ed:7d:50:b9:03:17:
                    38:db
                Exponent: 65537 (0x10001)
        X509v3 extensions:
            X509v3 Basic Constraints: 
                CA:FALSE
            X509v3 Subject Key Identifier: 
                CD:8B:8E:56:9D:E5:22:CD:A4:83:44:28:43:CA:8C:92:C3:C4:6A:58
            X509v3 Authority Key Identifier: 
                keyid:56:A0:B7:A4:97:BE:BC:F3:E7:DD:E1:F2:0B:5E:34:E3:E9:AE:84:84
                DirName:/CN=Couchbase CA
                serial:C3:AC:7F:FA:1F:A5:53:78

            X509v3 Extended Key Usage: 
                TLS Web Server Authentication
            X509v3 Key Usage: 
                Digital Signature, Key Encipherment
            X509v3 Subject Alternative Name: 
                DNS:*.cb-eks-cluster.emart.svc, DNS:*.emart.svc, DNS:*.cb-eks-cluster.seeastus.com
    Signature Algorithm: sha256WithRSAEncryption
         8d:84:93:e2:41:63:0f:17:88:4a:6a:b4:8d:d9:69:a2:36:2b:
         6e:e0:0f:71:75:f2:05:df:d8:86:7d:0b:9b:17:28:a4:7d:5b:
         7c:67:89:35:63:93:15:1a:1e:ce:c1:af:15:17:7e:c7:ae:38:
         45:b0:8c:23:cc:6e:36:b3:56:5c:c5:39:c1:a3:98:44:7c:17:
         79:6d:8e:fa:e2:4c:cf:00:1e:fb:30:29:19:c7:f6:4b:99:c0:
         19:20:5a:ab:10:c1:49:46:78:c2:29:19:1e:44:68:a9:71:2f:
         0a:8d:e8:74:e4:9a:69:2a:02:a5:1b:74:de:39:8f:65:19:40:
         fd:54:cf:2e:01:b2:e7:25:f4:b7:d5:5a:7e:41:7f:f8:88:8d:
         cf:5e:99:af:f1:3b:a6:3a:13:9a:d5:f9:fc:32:9e:a6:9c:94:
         0a:21:b7:93:5c:99:79:38:27:83:55:00:f6:b8:fa:5a:32:f3:
         6c:af:27:fa:03:86:c3:d9:3a:bb:4e:98:eb:0b:a6:98:33:17:
         95:a0:cd:2c:5e:13:12:2f:3c:da:93:cb:62:10:5e:7b:83:9e:
         44:c2:f1:cc:3b:03:bc:4f:67:75:59:b4:df:69:7a:89:ce:2c:
         99:54:c8:d0:1a:5b:b8:dc:b2:9d:41:dc:61:e5:ca:4f:40:00:
         5e:a7:1c:27
-----BEGIN CERTIFICATE-----
MIIDqTCCApGgAwIBAgIRAP309Ia3Wcgml1ZTvho67tkwDQYJKoZIhvcNAQELBQAw
FzEVMBMGA1UEAwwMQ291Y2hiYXNlIENBMB4XDTIwMDIyMTE1NDkxNVoXDTIyMDUy
NjE1NDkxNVowGzEZMBcGA1UEAwwQY291Y2hiYXNlLXNlcnZlcjCCASIwDQYJKoZI
hvcNAQEBBQADggEPADCCAQoCggEBAN2fgkF9ZjiHAMRRwqU+kppOt5o5pGIibeSa
QuNDmVr+yU82MAAKP3NN22DPJ89nKQpWTMlQeS8J8FyxCyNoDOqoJWijb2mR7YgJ
AELPrnXqwxfyIvJdf6bR6UoJV8aW8ONut+GXyHSrZlFPiy84l8uUSeZm0BHWvtXH
zp1PhEVY4TlQ+s/do7WZTuV4h/Qx0uZwFznYBF5oI0xIIOZ3zErzGZH0E3dsntqV
VtTGzosvrzAsvfCh6kXrrcC3t/2htokhhDEysFIXACEw27A9zU2Ht56KDvAIz8r6
EMFJmiG7AP+dlKLcp/+BcNiel3Qha0+lIkbsvmiP7X1QuQMXONsCAwEAAaOB6zCB
6DAJBgNVHRMEAjAAMB0GA1UdDgQWBBTNi45WneUizaSDRChDyoySw8RqWDBHBgNV
HSMEQDA+gBRWoLekl7688+fd4fILXjTj6a6EhKEbpBkwFzEVMBMGA1UEAwwMQ291
Y2hiYXNlIENBggkAw6x/+h+lU3gwEwYDVR0lBAwwCgYIKwYBBQUHAwEwCwYDVR0P
BAQDAgWgMFEGA1UdEQRKMEiCGiouY2ItZWtzLWNsdXN0ZXIuZW1hcnQuc3Zjggsq
LmVtYXJ0LnN2Y4IdKi5jYi1la3MtY2x1c3Rlci5zZWVhc3R1cy5jb20wDQYJKoZI
hvcNAQELBQADggEBAI2Ek+JBYw8XiEpqtI3ZaaI2K27gD3F18gXf2IZ9C5sXKKR9
W3xniTVjkxUaHs7BrxUXfseuOEWwjCPMbjazVlzFOcGjmER8F3ltjvriTM8AHvsw
KRnH9kuZwBkgWqsQwUlGeMIpGR5EaKlxLwqN6HTkmmkqAqUbdN45j2UZQP1Uzy4B
sucl9LfVWn5Bf/iIjc9ema/xO6Y6E5rV+fwynqaclAoht5NcmXk4J4NVAPa4+loy
82yvJ/oDhsPZOrtOmOsLppgzF5WgzSxeExIvPNqTy2IQXnuDnkTC8cw7A7xPZ3VZ
tN9peonOLJlUyNAaW7jcsp1B3GHlyk9AAF6nHCc=
-----END CERTIFICATE-----
